target datalayout = "e-m:e-p270:32:32-p271:32:32-p272:64:64-i64:64-i128:128-f80:128-n8:16:32:64-S128"
target triple = "x86_64-pc-linux-gnu"

%struct.H5SM_compare_udata_t = type { ptr, i32, i32 }
%struct.H5SM_sohm_t = type { i32, i32, i32, %union.anon }
%union.anon = type { %struct.H5O_mesg_loc_t }
%struct.H5O_mesg_loc_t = type { i32, i64 }
%struct.H5SM_mesg_key_t = type { ptr, ptr, ptr, i64, %struct.H5SM_sohm_t }
%struct.H5O_t = type { %struct.H5C_cache_entry_t, i64, i64, i8, i64, i8, i32, i8, i8, i64, i64, i64, i64, i32, i32, i64, i64, ptr, i64, i64, i64, i64, ptr, i8, ptr }
%struct.H5C_cache_entry_t = type { ptr, i64, i64, ptr, i8, ptr, i8, i8, i8, i8, i32, i8, i8, i8, i8, i8, i32, ptr, i32, i32, i32, i32, i32, i8, i8, ptr, ptr, ptr, ptr, ptr, ptr, i8, i32, i8, i64, ptr, i64, i64, i32, i8, i32, i32, i8, ptr, ptr, ptr }
%struct.H5O_mesg_t = type { ptr, i8, i8, i32, i32, ptr, ptr, i64 }

@H5SM_init_g = external global i8, align 1
@H5_libterm_g = external global i8, align 1
@.str = private unnamed_addr constant [105 x i8] c"generated/home/dtcxzyw/WorkSpace/Projects/compilers/llvm-opt-benchmark/bench/hdf5/hdf5/src/H5SMmessage.c\00", align 1
@__func__.H5SM__compare_iter_op = private unnamed_addr constant [22 x i8] c"H5SM__compare_iter_op\00", align 1
@H5E_SOHM_g = external global i64, align 8
@H5E_CANTENCODE_g = external global i64, align 8
@.str.4 = private unnamed_addr constant [39 x i8] c"unable to encode object header message\00", align 1

; Function Attrs: nounwind uwtable
define internal i32 @H5SM__compare_iter_op(ptr noundef %0, ptr noundef %1, i32 noundef %2, ptr noundef %3, ptr noundef %4) #0 {
  %6 = alloca i32, align 4
  %7 = alloca ptr, align 8
  %8 = alloca ptr, align 8
  %9 = alloca i32, align 4
  %10 = alloca ptr, align 8
  %11 = alloca ptr, align 8
  %12 = alloca ptr, align 8
  %13 = alloca i32, align 4
  %14 = alloca i8, align 1
  %15 = alloca i64, align 8
  %16 = alloca i32, align 4
  store ptr %0, ptr %7, align 8, !tbaa !43
  store ptr %1, ptr %8, align 8, !tbaa !45
  store i32 %2, ptr %9, align 4, !tbaa !9
  store ptr %3, ptr %10, align 8, !tbaa !7
  store ptr %4, ptr %11, align 8, !tbaa !3
  call void @llvm.lifetime.start.p0(i64 8, ptr %12) #6
  %17 = load ptr, ptr %11, align 8, !tbaa !3
  store ptr %17, ptr %12, align 8, !tbaa !39
  call void @llvm.lifetime.start.p0(i64 4, ptr %13) #6
  store i32 0, ptr %13, align 4, !tbaa !9
  call void @llvm.lifetime.start.p0(i64 1, ptr %14) #6
  store i8 0, ptr %14, align 1, !tbaa !11
  %18 = load i8, ptr @H5SM_init_g, align 1, !tbaa !11, !range !13, !noundef !14
  %19 = trunc i8 %18 to i1
  br i1 %19, label %24, label %20

20:                                               ; preds = %5
  %21 = load i8, ptr @H5_libterm_g, align 1, !tbaa !11, !range !13, !noundef !14
  %22 = trunc i8 %21 to i1
  %23 = xor i1 %22, true
  br label %24

24:                                               ; preds = %20, %5
  %25 = phi i1 [ true, %5 ], [ %23, %20 ]
  %26 = xor i1 %25, true
  %27 = xor i1 %26, true
  %28 = zext i1 %27 to i32
  %29 = sext i32 %28 to i64
  %30 = call i64 @llvm.expect.i64(i64 %29, i64 1)
  %31 = icmp ne i64 %30, 0
  br i1 %31, label %32, label %137

32:                                               ; preds = %24
  %33 = load i32, ptr %9, align 4, !tbaa !9
  %34 = load ptr, ptr %12, align 8, !tbaa !39
  %35 = getelementptr inbounds nuw %struct.H5SM_compare_udata_t, ptr %34, i32 0, i32 1
  %36 = load i32, ptr %35, align 8, !tbaa !35
  %37 = icmp eq i32 %33, %36
  br i1 %37, label %38, label %135

38:                                               ; preds = %32
  call void @llvm.lifetime.start.p0(i64 8, ptr %15) #6
  %39 = load ptr, ptr %7, align 8, !tbaa !43
  %40 = getelementptr inbounds nuw %struct.H5O_t, ptr %39, i32 0, i32 7
  %41 = load i8, ptr %40, align 8, !tbaa !47
  %42 = zext i8 %41 to i32
  %43 = icmp eq i32 %42, 1
  br i1 %43, label %44, label %53

44:                                               ; preds = %38
  %45 = load ptr, ptr %12, align 8, !tbaa !39
  %46 = getelementptr inbounds nuw %struct.H5SM_compare_udata_t, ptr %45, i32 0, i32 0
  %47 = load ptr, ptr %46, align 8, !tbaa !27
  %48 = getelementptr inbounds nuw %struct.H5SM_mesg_key_t, ptr %47, i32 0, i32 3
  %49 = load i64, ptr %48, align 8, !tbaa !41
  %50 = add i64 %49, 7
  %51 = udiv i64 %50, 8
  %52 = mul i64 8, %51
  br label %59

53:                                               ; preds = %38
  %54 = load ptr, ptr %12, align 8, !tbaa !39
  %55 = getelementptr inbounds nuw %struct.H5SM_compare_udata_t, ptr %54, i32 0, i32 0
  %56 = load ptr, ptr %55, align 8, !tbaa !27
  %57 = getelementptr inbounds nuw %struct.H5SM_mesg_key_t, ptr %56, i32 0, i32 3
  %58 = load i64, ptr %57, align 8, !tbaa !41
  br label %59

59:                                               ; preds = %53, %44
  %60 = phi i64 [ %52, %44 ], [ %58, %53 ]
  store i64 %60, ptr %15, align 8, !tbaa !30
  %61 = load i64, ptr %15, align 8, !tbaa !30
  %62 = load ptr, ptr %8, align 8, !tbaa !45
  %63 = getelementptr inbounds nuw %struct.H5O_mesg_t, ptr %62, i32 0, i32 7
  %64 = load i64, ptr %63, align 8, !tbaa !58
  %65 = icmp ugt i64 %61, %64
  br i1 %65, label %66, label %69

66:                                               ; preds = %59
  %67 = load ptr, ptr %12, align 8, !tbaa !39
  %68 = getelementptr inbounds nuw %struct.H5SM_compare_udata_t, ptr %67, i32 0, i32 2
  store i32 1, ptr %68, align 4, !tbaa !38
  br label %131

69:                                               ; preds = %59
  %70 = load i64, ptr %15, align 8, !tbaa !30
  %71 = load ptr, ptr %8, align 8, !tbaa !45
  %72 = getelementptr inbounds nuw %struct.H5O_mesg_t, ptr %71, i32 0, i32 7
  %73 = load i64, ptr %72, align 8, !tbaa !58
  %74 = icmp ult i64 %70, %73
  br i1 %74, label %75, label %78

75:                                               ; preds = %69
  %76 = load ptr, ptr %12, align 8, !tbaa !39
  %77 = getelementptr inbounds nuw %struct.H5SM_compare_udata_t, ptr %76, i32 0, i32 2
  store i32 -1, ptr %77, align 4, !tbaa !38
  br label %130

78:                                               ; preds = %69
  %79 = load ptr, ptr %8, align 8, !tbaa !45
  %80 = getelementptr inbounds nuw %struct.H5O_mesg_t, ptr %79, i32 0, i32 1
  %81 = load i8, ptr %80, align 8, !tbaa !62, !range !13, !noundef !14
  %82 = trunc i8 %81 to i1
  br i1 %82, label %83, label %113

83:                                               ; preds = %78
  %84 = load ptr, ptr %12, align 8, !tbaa !39
  %85 = getelementptr inbounds nuw %struct.H5SM_compare_udata_t, ptr %84, i32 0, i32 0
  %86 = load ptr, ptr %85, align 8, !tbaa !27
  %87 = getelementptr inbounds nuw %struct.H5SM_mesg_key_t, ptr %86, i32 0, i32 0
  %88 = load ptr, ptr %87, align 8, !tbaa !31
  %89 = load ptr, ptr %7, align 8, !tbaa !43
  %90 = load ptr, ptr %8, align 8, !tbaa !45
  %91 = call i32 @H5O_msg_flush(ptr noundef %88, ptr noundef %89, ptr noundef %90)
  %92 = icmp slt i32 %91, 0
  br i1 %92, label %93, label %112

93:                                               ; preds = %83
  br label %94

94:                                               ; preds = %93
  br label %95

95:                                               ; preds = %94
  br label %96

96:                                               ; preds = %95
  %97 = load i64, ptr @H5E_SOHM_g, align 8, !tbaa !30
  %98 = load i64, ptr @H5E_CANTENCODE_g, align 8, !tbaa !30
  %99 = call i32 (ptr, ptr, i32, i64, i64, ptr, ...) @H5E_printf_stack(ptr noundef @.str, ptr noundef @__func__.H5SM__compare_iter_op, i32 noundef 140, i64 noundef %97, i64 noundef %98, ptr noundef @.str.4)
  br label %100

100:                                              ; preds = %96
  br label %101

101:                                              ; preds = %100
  store i8 1, ptr %14, align 1, !tbaa !11
  %102 = load i8, ptr %14, align 1, !tbaa !11, !range !13, !noundef !14
  %103 = trunc i8 %102 to i1
  %104 = zext i1 %103 to i8
  store i8 %104, ptr %14, align 1, !tbaa !11
  br label %105

105:                                              ; preds = %101
  br label %106

106:                                              ; preds = %105
  br label %107

107:                                              ; preds = %106
  store i32 -1, ptr %13, align 4, !tbaa !9
  store i32 10, ptr %16, align 4
  br label %132

108:                                              ; No predecessors!
  br label %109

109:                                              ; preds = %108
  br label %110

110:                                              ; preds = %109
  br label %111

111:                                              ; preds = %110
  br label %112

112:                                              ; preds = %111, %83
  br label %113

113:                                              ; preds = %112, %78
  %114 = load ptr, ptr %12, align 8, !tbaa !39
  %115 = getelementptr inbounds nuw %struct.H5SM_compare_udata_t, ptr %114, i32 0, i32 0
  %116 = load ptr, ptr %115, align 8, !tbaa !27
  %117 = getelementptr inbounds nuw %struct.H5SM_mesg_key_t, ptr %116, i32 0, i32 2
  %118 = load ptr, ptr %117, align 8, !tbaa !42
  %119 = load ptr, ptr %8, align 8, !tbaa !45
  %120 = getelementptr inbounds nuw %struct.H5O_mesg_t, ptr %119, i32 0, i32 6
  %121 = load ptr, ptr %120, align 8, !tbaa !63
  %122 = load ptr, ptr %12, align 8, !tbaa !39
  %123 = getelementptr inbounds nuw %struct.H5SM_compare_udata_t, ptr %122, i32 0, i32 0
  %124 = load ptr, ptr %123, align 8, !tbaa !27
  %125 = getelementptr inbounds nuw %struct.H5SM_mesg_key_t, ptr %124, i32 0, i32 3
  %126 = load i64, ptr %125, align 8, !tbaa !41
  %127 = call i32 @memcmp(ptr noundef %118, ptr noundef %121, i64 noundef %126) #7
  %128 = load ptr, ptr %12, align 8, !tbaa !39
  %129 = getelementptr inbounds nuw %struct.H5SM_compare_udata_t, ptr %128, i32 0, i32 2
  store i32 %127, ptr %129, align 4, !tbaa !38
  br label %130

130:                                              ; preds = %113, %75
  br label %131

131:                                              ; preds = %130, %66
  store i32 1, ptr %13, align 4, !tbaa !9
  store i32 0, ptr %16, align 4
  br label %132

132:                                              ; preds = %107, %131
  call void @llvm.lifetime.end.p0(i64 8, ptr %15) #6
  %133 = load i32, ptr %16, align 4
  switch i32 %133, label %139 [
    i32 0, label %134
    i32 10, label %136
  ]

134:                                              ; preds = %132
  br label %135

135:                                              ; preds = %134, %32
  br label %136

136:                                              ; preds = %135, %132
  br label %137

137:                                              ; preds = %136, %24
  %138 = load i32, ptr %13, align 4, !tbaa !9
  store i32 %138, ptr %6, align 4
  store i32 1, ptr %16, align 4
  br label %139

139:                                              ; preds = %137, %132
  call void @llvm.lifetime.end.p0(i64 1, ptr %14) #6
  call void @llvm.lifetime.end.p0(i64 4, ptr %13) #6
  call void @llvm.lifetime.end.p0(i64 8, ptr %12) #6
  %140 = load i32, ptr %6, align 4
  ret i32 %140
}