; Function Attrs: nounwind uwtable
define internal range(i32 -1, 2) i32 @H5SM__compare_iter_op(ptr noundef %0, ptr noundef %1, i32 noundef %2, ptr readnone captures(none) %3, ptr noundef captures(none) %4) #0 {
  %6 = load i8, ptr @H5SM_init_g, align 1, !tbaa !3, !range !7, !noundef !8
  %7 = trunc nuw i8 %6 to i1
  %8 = load i8, ptr @H5_libterm_g, align 1, !range !7
  %9 = trunc nuw i8 %8 to i1
  %10 = xor i1 %9, true
  %11 = select i1 %7, i1 true, i1 %10
  br i1 %11, label %12, label %57, !prof !9

12:                                               ; preds = %5
  %13 = getelementptr inbounds nuw i8, ptr %4, i64 8
  %14 = load i32, ptr %13, align 8, !tbaa !33
  %15 = icmp eq i32 %2, %14
  br i1 %15, label %16, label %57

16:                                               ; preds = %12
  %17 = getelementptr inbounds nuw i8, ptr %0, i64 288
  %18 = load i8, ptr %17, align 8, !tbaa !39
  %19 = icmp eq i8 %18, 1
  %20 = load ptr, ptr %4, align 8, !tbaa !25
  %21 = getelementptr inbounds nuw i8, ptr %20, i64 24
  %22 = load i64, ptr %21, align 8, !tbaa !37
  %23 = add i64 %22, 7
  %24 = and i64 %23, -8
  %25 = select i1 %19, i64 %24, i64 %22
  %26 = getelementptr inbounds nuw i8, ptr %1, i64 40
  %27 = load i64, ptr %26, align 8, !tbaa !51
  %28 = icmp ugt i64 %25, %27
  br i1 %28, label %29, label %31

29:                                               ; preds = %16
  %30 = getelementptr inbounds nuw i8, ptr %4, i64 12
  store i32 1, ptr %30, align 4, !tbaa !36
  br label %57

31:                                               ; preds = %16
  %32 = icmp ult i64 %25, %27
  br i1 %32, label %33, label %35

33:                                               ; preds = %31
  %34 = getelementptr inbounds nuw i8, ptr %4, i64 12
  store i32 -1, ptr %34, align 4, !tbaa !36
  br label %57

35:                                               ; preds = %31
  %36 = getelementptr inbounds nuw i8, ptr %1, i64 8
  %37 = load i8, ptr %36, align 8, !tbaa !55, !range !7, !noundef !8
  %38 = trunc nuw i8 %37 to i1
  br i1 %38, label %39, label %47

39:                                               ; preds = %35
  %40 = load ptr, ptr %20, align 8, !tbaa !29
  %41 = tail call i32 @H5O_msg_flush(ptr noundef %40, ptr noundef nonnull %0, ptr noundef nonnull %1) #5
  %42 = icmp slt i32 %41, 0
  br i1 %42, label %43, label %._crit_edge

._crit_edge:                                      ; preds = %39
  %.pre = load ptr, ptr %4, align 8, !tbaa !25
  br label %47

43:                                               ; preds = %39
  %44 = load i64, ptr @H5E_SOHM_g, align 8, !tbaa !28
  %45 = load i64, ptr @H5E_CANTENCODE_g, align 8, !tbaa !28
  %46 = tail call i32 (ptr, ptr, i32, i64, i64, ptr, ...) @H5E_printf_stack(ptr noundef nonnull @.str, ptr noundef nonnull @__func__.H5SM__compare_iter_op, i32 noundef 140, i64 noundef %44, i64 noundef %45, ptr noundef nonnull @.str.4) #5
  br label %57

47:                                               ; preds = %._crit_edge, %35
  %48 = phi ptr [ %.pre, %._crit_edge ], [ %20, %35 ]
  %49 = getelementptr inbounds nuw i8, ptr %48, i64 16
  %50 = load ptr, ptr %49, align 8, !tbaa !38
  %51 = getelementptr inbounds nuw i8, ptr %1, i64 32
  %52 = load ptr, ptr %51, align 8, !tbaa !56
  %53 = getelementptr inbounds nuw i8, ptr %48, i64 24
  %54 = load i64, ptr %53, align 8, !tbaa !37
  %55 = tail call i32 @memcmp(ptr noundef %50, ptr noundef %52, i64 noundef %54) #6
  %56 = getelementptr inbounds nuw i8, ptr %4, i64 12
  store i32 %55, ptr %56, align 4, !tbaa !36
  br label %57

57:                                               ; preds = %43, %33, %47, %29, %5, %12
  %.023 = phi i32 [ 0, %12 ], [ 0, %5 ], [ -1, %43 ], [ 1, %33 ], [ 1, %47 ], [ 1, %29 ]
  ret i32 %.023
}